; Function Attrs: nounwind uwtable
define internal fastcc ptr @_init_l_Lean_Elab_Tactic_Omega_analyzeAtom___closed__67() unnamed_addr #1 {
  %1 = load ptr, ptr @l_Lean_Elab_Tactic_Omega_analyzeAtom___closed__54, align 8, !tbaa !4
  %2 = ptrtoint ptr %1 to i64
  %3 = and i64 %2, 1
  %.not.i = icmp eq i64 %3, 0
  br i1 %.not.i, label %16, label %4, !prof !17

4:                                                ; preds = %0
  %5 = shl i64 %2, 31
  %6 = ashr i64 %5, 32
  %7 = sub nsw i64 0, %6
  %8 = icmp sgt i64 %6, -2147483648
  br i1 %8, label %9, label %14, !prof !11

9:                                                ; preds = %4
  %10 = shl nsw i64 %7, 1
  %11 = and i64 %10, 8589934590
  %12 = or disjoint i64 %11, 1
  %13 = inttoptr i64 %12 to ptr
  br label %lean_int_neg.exit

14:                                               ; preds = %4
  %15 = tail call ptr @lean_big_int64_to_int(i64 noundef range(i64 -2147483647, 2147483649) %7) #4
  br label %lean_int_neg.exit

16:                                               ; preds = %0
  %17 = tail call ptr @lean_int_big_neg(ptr noundef %1) #4
  br label %lean_int_neg.exit

lean_int_neg.exit:                                ; preds = %9, %14, %16
  %.0.i = phi ptr [ %17, %16 ], [ %13, %9 ], [ %15, %14 ]
  ret ptr %.0.i
}